; Function Attrs: nounwind uwtable
define internal void @cf_ssl_scache_sesssion_ldestroy(ptr readnone captures(none) %0, ptr noundef initializes((8, 28), (56, 64)) %1) #0 {
  %3 = load ptr, ptr %1, align 8, !tbaa !19
  %.not.i = icmp eq ptr %3, null
  br i1 %.not.i, label %6, label %4

4:                                                ; preds = %2
  %5 = load ptr, ptr @Curl_cfree, align 8, !tbaa !3
  tail call void %5(ptr noundef nonnull %3) #9
  store ptr null, ptr %1, align 8, !tbaa !19
  br label %6

6:                                                ; preds = %4, %2
  %7 = getelementptr inbounds nuw i8, ptr %1, i64 8
  store i64 0, ptr %7, align 8, !tbaa !20
  %8 = getelementptr inbounds nuw i8, ptr %1, i64 48
  %9 = load ptr, ptr %8, align 8, !tbaa !22
  %.not13.i = icmp eq ptr %9, null
  br i1 %.not13.i, label %cf_ssl_scache_clear_session.exit, label %10

10:                                               ; preds = %6
  %11 = load ptr, ptr @Curl_cfree, align 8, !tbaa !3
  tail call void %11(ptr noundef nonnull %9) #9
  store ptr null, ptr %8, align 8, !tbaa !22
  br label %cf_ssl_scache_clear_session.exit

cf_ssl_scache_clear_session.exit:                 ; preds = %6, %10
  %12 = getelementptr inbounds nuw i8, ptr %1, i64 56
  store i64 0, ptr %12, align 8, !tbaa !23
  %13 = getelementptr inbounds nuw i8, ptr %1, i64 24
  store i32 0, ptr %13, align 8, !tbaa !9
  %14 = getelementptr inbounds nuw i8, ptr %1, i64 16
  store i64 0, ptr %14, align 8, !tbaa !17
  %15 = load ptr, ptr @Curl_cfree, align 8, !tbaa !3
  %16 = getelementptr inbounds nuw i8, ptr %1, i64 32
  %17 = load ptr, ptr %16, align 8, !tbaa !21
  tail call void %15(ptr noundef %17) #9
  store ptr null, ptr %16, align 8, !tbaa !21
  %18 = load ptr, ptr @Curl_cfree, align 8, !tbaa !3
  tail call void %18(ptr noundef nonnull %1) #9
  ret void
}